target datalayout = "e-m:e-p270:32:32-p271:32:32-p272:64:64-i64:64-i128:128-f80:128-n8:16:32:64-S128"
target triple = "x86_64-pc-linux-gnu"

%struct.expert_info_s = type { i32, i32, i32, i32, ptr, ptr, ptr }
%class.ExpertInfoModel = type { %class.QAbstractItemModel, ptr, i8, ptr, %class.QHash.2 }
%class.QAbstractItemModel = type { %class.QObject }
%class.QObject = type { ptr, %class.QScopedPointer }
%class.QScopedPointer = type { ptr }
%class.QHash.2 = type { ptr }

; Function Attrs: mustprogress null_pointer_is_valid sspstrong uwtable
define noundef i32 @_ZN15ExpertInfoModel9tapPacketEPvP12_packet_infoP12epan_dissectPKvj(ptr noundef %0, ptr noundef %1, ptr noundef %2, ptr noundef %3, i32 noundef %4) #0 align 2 {
  %6 = alloca i32, align 4
  %7 = alloca ptr, align 8
  %8 = alloca ptr, align 8
  %9 = alloca ptr, align 8
  %10 = alloca ptr, align 8
  %11 = alloca i32, align 4
  %12 = alloca ptr, align 8
  %13 = alloca ptr, align 8
  %14 = alloca i32, align 4
  %15 = alloca i32, align 4
  %16 = alloca i32, align 4
  store ptr %0, ptr %7, align 8
  store ptr %1, ptr %8, align 8
  store ptr %2, ptr %9, align 8
  store ptr %3, ptr %10, align 8
  store i32 %4, ptr %11, align 4
  call void @llvm.lifetime.start.p0(i64 8, ptr %12) #10
  %17 = load ptr, ptr %7, align 8
  store ptr %17, ptr %12, align 8
  call void @llvm.lifetime.start.p0(i64 8, ptr %13) #10
  %18 = load ptr, ptr %10, align 8
  store ptr %18, ptr %13, align 8
  call void @llvm.lifetime.start.p0(i64 4, ptr %14) #10
  store i32 0, ptr %14, align 4
  %19 = load ptr, ptr %8, align 8
  %20 = icmp ne ptr %19, null
  br i1 %20, label %21, label %27

21:                                               ; preds = %5
  %22 = load ptr, ptr %12, align 8
  %23 = icmp ne ptr %22, null
  br i1 %23, label %24, label %27

24:                                               ; preds = %21
  %25 = load ptr, ptr %13, align 8
  %26 = icmp ne ptr %25, null
  br i1 %26, label %28, label %27

27:                                               ; preds = %24, %21, %5
  store i32 0, ptr %6, align 4
  store i32 1, ptr %15, align 4
  br label %40

28:                                               ; preds = %24
  %29 = load ptr, ptr %12, align 8
  %30 = load ptr, ptr %13, align 8
  call void @_ZN15ExpertInfoModel13addExpertInfoERK13expert_info_s(ptr noundef align 8 dereferenceable_or_null(48) %29, ptr noundef align 8 dereferenceable(40) %30)
  store i32 1, ptr %14, align 4
  %31 = load ptr, ptr %12, align 8
  %32 = getelementptr inbounds nuw %class.ExpertInfoModel, ptr %31, i32 0, i32 4
  call void @llvm.lifetime.start.p0(i64 4, ptr %16) #10
  %33 = load ptr, ptr %13, align 8
  %34 = getelementptr inbounds nuw %struct.expert_info_s, ptr %33, i32 0, i32 2
  %35 = load i32, ptr %34, align 8
  store i32 %35, ptr %16, align 4
  %36 = call noundef align 4 dereferenceable(4) ptr @_ZN5QHashIN15ExpertInfoModel14ExpertSeverityEiEixERKS1_(ptr noundef align 8 dereferenceable_or_null(8) %32, ptr noundef align 4 dereferenceable(4) %16)
  %37 = load i32, ptr %36, align 4
  %38 = add i32 %37, 1
  store i32 %38, ptr %36, align 4
  call void @llvm.lifetime.end.p0(i64 4, ptr %16) #10
  %39 = load i32, ptr %14, align 4
  store i32 %39, ptr %6, align 4
  store i32 1, ptr %15, align 4
  br label %40

40:                                               ; preds = %28, %27
  call void @llvm.lifetime.end.p0(i64 4, ptr %14) #10
  call void @llvm.lifetime.end.p0(i64 8, ptr %13) #10
  call void @llvm.lifetime.end.p0(i64 8, ptr %12) #10
  %41 = load i32, ptr %6, align 4
  ret i32 %41
}