; Function Attrs: mustprogress null_pointer_is_valid sspstrong uwtable
define noundef range(i32 0, 2) i32 @_ZN15ExpertInfoModel9tapPacketEPvP12_packet_infoP12epan_dissectPKvj(ptr noundef %0, ptr noundef readnone captures(address_is_null) %1, ptr noundef readnone captures(none) %2, ptr noundef %3, i32 noundef %4) local_unnamed_addr #0 align 2 {
  %6 = alloca i32, align 4
  %7 = icmp ne ptr %1, null
  %8 = icmp ne ptr %0, null
  %or.cond = and i1 %8, %7
  %9 = icmp ne ptr %3, null
  %or.cond3 = and i1 %or.cond, %9
  br i1 %or.cond3, label %10, label %17

10:                                               ; preds = %5
  tail call void @_ZN15ExpertInfoModel13addExpertInfoERK13expert_info_s(ptr noundef nonnull align 8 dereferenceable_or_null(48) %0, ptr noundef nonnull align 8 dereferenceable(40) %3)
  %11 = getelementptr inbounds nuw i8, ptr %0, i64 40
  call void @llvm.lifetime.start.p0(i64 4, ptr nonnull %6) #26
  %12 = getelementptr inbounds nuw i8, ptr %3, i64 8
  %13 = load i32, ptr %12, align 8
  store i32 %13, ptr %6, align 4
  %14 = call noundef align 4 dereferenceable(4) ptr @_ZN5QHashIN15ExpertInfoModel14ExpertSeverityEiEixERKS1_(ptr noundef nonnull align 8 dereferenceable_or_null(8) %11, ptr noundef nonnull align 4 dereferenceable(4) %6)
  %15 = load i32, ptr %14, align 4
  %16 = add i32 %15, 1
  store i32 %16, ptr %14, align 4
  call void @llvm.lifetime.end.p0(i64 4, ptr nonnull %6) #26
  br label %17

17:                                               ; preds = %5, %10
  %.0 = phi i32 [ 1, %10 ], [ 0, %5 ]
  ret i32 %.0
}